target datalayout = "e-m:e-p270:32:32-p271:32:32-p272:64:64-i64:64-i128:128-f80:128-n8:16:32:64-S128"
target triple = "x86_64-pc-linux-gnu"

; Function Attrs: nounwind uwtable
define i64 @lv_strlcpy(ptr noundef %0, ptr noundef %1, i64 noundef %2) #0 {
  %4 = alloca ptr, align 8
  %5 = alloca ptr, align 8
  %6 = alloca i64, align 8
  %7 = alloca i64, align 8
  store ptr %0, ptr %4, align 8, !tbaa !3
  store ptr %1, ptr %5, align 8, !tbaa !3
  store i64 %2, ptr %6, align 8, !tbaa !7
  call void @llvm.lifetime.start.p0(i64 8, ptr %7) #3
  store i64 0, ptr %7, align 8, !tbaa !7
  %8 = load i64, ptr %6, align 8, !tbaa !7
  %9 = icmp ugt i64 %8, 0
  br i1 %9, label %10, label %40

10:                                               ; preds = %3
  br label %11

11:                                               ; preds = %33, %10
  %12 = load i64, ptr %7, align 8, !tbaa !7
  %13 = load i64, ptr %6, align 8, !tbaa !7
  %14 = sub i64 %13, 1
  %15 = icmp ult i64 %12, %14
  br i1 %15, label %16, label %23

16:                                               ; preds = %11
  %17 = load ptr, ptr %5, align 8, !tbaa !3
  %18 = load i64, ptr %7, align 8, !tbaa !7
  %19 = getelementptr inbounds nuw i8, ptr %17, i64 %18
  %20 = load i8, ptr %19, align 1, !tbaa !9
  %21 = sext i8 %20 to i32
  %22 = icmp ne i32 %21, 0
  br label %23

23:                                               ; preds = %16, %11
  %24 = phi i1 [ false, %11 ], [ %22, %16 ]
  br i1 %24, label %25, label %36

25:                                               ; preds = %23
  %26 = load ptr, ptr %5, align 8, !tbaa !3
  %27 = load i64, ptr %7, align 8, !tbaa !7
  %28 = getelementptr inbounds nuw i8, ptr %26, i64 %27
  %29 = load i8, ptr %28, align 1, !tbaa !9
  %30 = load ptr, ptr %4, align 8, !tbaa !3
  %31 = load i64, ptr %7, align 8, !tbaa !7
  %32 = getelementptr inbounds nuw i8, ptr %30, i64 %31
  store i8 %29, ptr %32, align 1, !tbaa !9
  br label %33

33:                                               ; preds = %25
  %34 = load i64, ptr %7, align 8, !tbaa !7
  %35 = add i64 %34, 1
  store i64 %35, ptr %7, align 8, !tbaa !7
  br label %11, !llvm.loop !26

36:                                               ; preds = %23
  %37 = load ptr, ptr %4, align 8, !tbaa !3
  %38 = load i64, ptr %7, align 8, !tbaa !7
  %39 = getelementptr inbounds nuw i8, ptr %37, i64 %38
  store i8 0, ptr %39, align 1, !tbaa !9
  br label %40

40:                                               ; preds = %36, %3
  br label %41

41:                                               ; preds = %47, %40
  %42 = load ptr, ptr %5, align 8, !tbaa !3
  %43 = load i64, ptr %7, align 8, !tbaa !7
  %44 = getelementptr inbounds nuw i8, ptr %42, i64 %43
  %45 = load i8, ptr %44, align 1, !tbaa !9
  %46 = icmp ne i8 %45, 0
  br i1 %46, label %47, label %50

47:                                               ; preds = %41
  %48 = load i64, ptr %7, align 8, !tbaa !7
  %49 = add i64 %48, 1
  store i64 %49, ptr %7, align 8, !tbaa !7
  br label %41, !llvm.loop !27

50:                                               ; preds = %41
  %51 = load i64, ptr %7, align 8, !tbaa !7
  call void @llvm.lifetime.end.p0(i64 8, ptr %7) #3
  ret i64 %51
}