; Function Attrs: nofree norecurse nosync nounwind memory(argmem: readwrite) uwtable
define i64 @lv_strlcpy(ptr nocapture noundef writeonly %0, ptr nocapture noundef readonly %1, i64 noundef %2) local_unnamed_addr #0 {
  %.not = icmp eq i64 %2, 0
  br i1 %.not, label %.preheader21, label %.preheader

.preheader:                                       ; preds = %3
  %4 = add i64 %2, -1
  %.not20 = icmp eq i64 %4, 0
  br i1 %.not20, label %.critedge, label %.lr.ph

.lr.ph:                                           ; preds = %.preheader, %7
  %.117 = phi i64 [ %9, %7 ], [ 0, %.preheader ]
  %5 = getelementptr inbounds nuw i8, ptr %1, i64 %.117
  %6 = load i8, ptr %5, align 1, !tbaa !3
  %.not15 = icmp eq i8 %6, 0
  br i1 %.not15, label %.critedge, label %7

7:                                                ; preds = %.lr.ph
  %8 = getelementptr inbounds nuw i8, ptr %0, i64 %.117
  store i8 %6, ptr %8, align 1, !tbaa !3
  %9 = add nuw i64 %.117, 1
  %exitcond.not = icmp eq i64 %9, %4
  br i1 %exitcond.not, label %.critedge, label %.lr.ph, !llvm.loop !20

.critedge:                                        ; preds = %.lr.ph, %7, %.preheader
  %.1.lcssa = phi i64 [ 0, %.preheader ], [ %4, %7 ], [ %.117, %.lr.ph ]
  %10 = getelementptr inbounds nuw i8, ptr %0, i64 %.1.lcssa
  store i8 0, ptr %10, align 1, !tbaa !3
  br label %.preheader21

.preheader21:                                     ; preds = %.critedge, %3
  %.2.ph = phi i64 [ 0, %3 ], [ %.1.lcssa, %.critedge ]
  br label %11

11:                                               ; preds = %.preheader21, %11
  %.2 = phi i64 [ %14, %11 ], [ %.2.ph, %.preheader21 ]
  %12 = getelementptr inbounds nuw i8, ptr %1, i64 %.2
  %13 = load i8, ptr %12, align 1, !tbaa !3
  %.not16 = icmp eq i8 %13, 0
  %14 = add i64 %.2, 1
  br i1 %.not16, label %15, label %11, !llvm.loop !21

15:                                               ; preds = %11
  ret i64 %.2
}